target datalayout = "e-m:e-p270:32:32-p271:32:32-p272:64:64-i64:64-i128:128-f80:128-n8:16:32:64-S128"
target triple = "x86_64-pc-linux-gnu"

%struct.test_fixture = type { ptr, i32, ptr, ptr }

@.str.11 = private unnamed_addr constant [23 x i8] c"test_HDR_init_with_ref\00", align 1
@.str.13 = private unnamed_addr constant [31 x i8] c"../openssl/test/cmp_hdr_test.c\00", align 1
@.str.18 = private unnamed_addr constant [2 x i8] c"1\00", align 1
@.str.65 = private unnamed_addr constant [29 x i8] c"RAND_bytes(ref, sizeof(ref))\00", align 1
@.str.66 = private unnamed_addr constant [69 x i8] c"OSSL_CMP_CTX_set1_referenceValue(fixture->cmp_ctx, ref, sizeof(ref))\00", align 1

; Function Attrs: nounwind uwtable
define internal void @tear_down(ptr noundef %0) #0 {
  %2 = alloca ptr, align 8
  store ptr %0, ptr %2, align 8, !tbaa !4
  %3 = load ptr, ptr %2, align 8, !tbaa !4
  %4 = getelementptr inbounds nuw %struct.test_fixture, ptr %3, i32 0, i32 3
  %5 = load ptr, ptr %4, align 8, !tbaa !21
  call void @OSSL_CMP_PKIHEADER_free(ptr noundef %5)
  %6 = load ptr, ptr %2, align 8, !tbaa !4
  %7 = getelementptr inbounds nuw %struct.test_fixture, ptr %6, i32 0, i32 2
  %8 = load ptr, ptr %7, align 8, !tbaa !16
  call void @OSSL_CMP_CTX_free(ptr noundef %8)
  %9 = load ptr, ptr %2, align 8, !tbaa !4
  call void @CRYPTO_free(ptr noundef %9, ptr noundef @.str.13, i32 noundef 28)
  ret void
}

; Function Attrs: nounwind uwtable
define internal i32 @test_HDR_init_with_ref() #0 {
  %1 = alloca i32, align 4
  %2 = alloca [15 x i8], align 1
  %3 = alloca ptr, align 8
  %4 = alloca i32, align 4
  %5 = alloca i32, align 4
  call void @llvm.lifetime.start.p0(i64 15, ptr %2) #7
  call void @llvm.lifetime.start.p0(i64 8, ptr %3) #7
  %6 = call ptr @set_up(ptr noundef @.str.11)
  store ptr %6, ptr %3, align 8, !tbaa !4
  call void @llvm.lifetime.start.p0(i64 4, ptr %4) #7
  store i32 0, ptr %4, align 4, !tbaa !9
  %7 = load ptr, ptr %3, align 8, !tbaa !4
  %8 = icmp eq ptr %7, null
  br i1 %8, label %9, label %10

9:                                                ; preds = %0
  store i32 0, ptr %1, align 4
  store i32 1, ptr %5, align 4
  br label %38

10:                                               ; preds = %0
  %11 = load ptr, ptr %3, align 8, !tbaa !4
  %12 = getelementptr inbounds nuw %struct.test_fixture, ptr %11, i32 0, i32 1
  store i32 1, ptr %12, align 8, !tbaa !11
  %13 = getelementptr inbounds [15 x i8], ptr %2, i64 0, i64 0
  %14 = call i32 @RAND_bytes(ptr noundef %13, i32 noundef 15)
  %15 = call i32 @test_int_eq(ptr noundef @.str.13, i32 noundef 452, ptr noundef @.str.18, ptr noundef @.str.65, i32 noundef 1, i32 noundef %14)
  %16 = icmp ne i32 %15, 0
  br i1 %16, label %17, label %27

17:                                               ; preds = %10
  %18 = load ptr, ptr %3, align 8, !tbaa !4
  %19 = getelementptr inbounds nuw %struct.test_fixture, ptr %18, i32 0, i32 2
  %20 = load ptr, ptr %19, align 8, !tbaa !16
  %21 = getelementptr inbounds [15 x i8], ptr %2, i64 0, i64 0
  %22 = call i32 @OSSL_CMP_CTX_set1_referenceValue(ptr noundef %20, ptr noundef %21, i32 noundef 15)
  %23 = icmp ne i32 %22, 0
  %24 = zext i1 %23 to i32
  %25 = call i32 @test_true(ptr noundef @.str.13, i32 noundef 454, ptr noundef @.str.66, i32 noundef %24)
  %26 = icmp ne i32 %25, 0
  br i1 %26, label %29, label %27

27:                                               ; preds = %17, %10
  %28 = load ptr, ptr %3, align 8, !tbaa !4
  call void @tear_down(ptr noundef %28)
  store ptr null, ptr %3, align 8, !tbaa !4
  br label %29

29:                                               ; preds = %27, %17
  %30 = load ptr, ptr %3, align 8, !tbaa !4
  %31 = icmp ne ptr %30, null
  br i1 %31, label %32, label %36

32:                                               ; preds = %29
  %33 = load ptr, ptr %3, align 8, !tbaa !4
  %34 = call i32 @execute_HDR_init_test(ptr noundef %33)
  store i32 %34, ptr %4, align 4, !tbaa !9
  %35 = load ptr, ptr %3, align 8, !tbaa !4
  call void @tear_down(ptr noundef %35)
  br label %36

36:                                               ; preds = %32, %29
  %37 = load i32, ptr %4, align 4, !tbaa !9
  store i32 %37, ptr %1, align 4
  store i32 1, ptr %5, align 4
  br label %38

38:                                               ; preds = %36, %9
  call void @llvm.lifetime.end.p0(i64 4, ptr %4) #7
  call void @llvm.lifetime.end.p0(i64 8, ptr %3) #7
  call void @llvm.lifetime.end.p0(i64 15, ptr %2) #7
  %39 = load i32, ptr %1, align 4
  ret i32 %39
}