; Function Attrs: nounwind uwtable
define internal range(i32 0, 2) i32 @test_HDR_init_with_ref() #1 {
  %1 = alloca [15 x i8], align 1
  call void @llvm.lifetime.start.p0(i64 15, ptr nonnull %1) #8
  %2 = tail call fastcc ptr @set_up(ptr noundef nonnull @.str.11)
  %3 = icmp eq ptr %2, null
  br i1 %3, label %22, label %4

4:                                                ; preds = %0
  %5 = getelementptr inbounds nuw i8, ptr %2, i64 8
  store i32 1, ptr %5, align 8, !tbaa !4
  %6 = call i32 @RAND_bytes(ptr noundef nonnull %1, i32 noundef 15) #8
  %7 = call i32 @test_int_eq(ptr noundef nonnull @.str.13, i32 noundef 452, ptr noundef nonnull @.str.18, ptr noundef nonnull @.str.65, i32 noundef 1, i32 noundef %6) #8
  %.not = icmp eq i32 %7, 0
  br i1 %.not, label %.thread, label %8

8:                                                ; preds = %4
  %9 = getelementptr inbounds nuw i8, ptr %2, i64 16
  %10 = load ptr, ptr %9, align 8, !tbaa !14
  %11 = call i32 @OSSL_CMP_CTX_set1_referenceValue(ptr noundef %10, ptr noundef nonnull %1, i32 noundef 15) #8
  %12 = icmp ne i32 %11, 0
  %13 = zext i1 %12 to i32
  %14 = call i32 @test_true(ptr noundef nonnull @.str.13, i32 noundef 454, ptr noundef nonnull @.str.66, i32 noundef %13) #8
  %.not11 = icmp eq i32 %14, 0
  br i1 %.not11, label %.thread, label %18

.thread:                                          ; preds = %4, %8
  %15 = getelementptr inbounds nuw i8, ptr %2, i64 24
  %16 = load ptr, ptr %15, align 8, !tbaa !13
  call void @OSSL_CMP_PKIHEADER_free(ptr noundef %16) #8
  %17 = getelementptr inbounds nuw i8, ptr %2, i64 16
  br label %.sink.split

18:                                               ; preds = %8
  %19 = call fastcc i32 @execute_HDR_init_test(ptr noundef %2)
  %20 = getelementptr inbounds nuw i8, ptr %2, i64 24
  %21 = load ptr, ptr %20, align 8, !tbaa !13
  call void @OSSL_CMP_PKIHEADER_free(ptr noundef %21) #8
  br label %.sink.split

.sink.split:                                      ; preds = %18, %.thread
  %.sink.in = phi ptr [ %17, %.thread ], [ %9, %18 ]
  %.09.ph = phi i32 [ 0, %.thread ], [ %19, %18 ]
  %.sink = load ptr, ptr %.sink.in, align 8, !tbaa !14
  call void @OSSL_CMP_CTX_free(ptr noundef %.sink) #8
  call void @CRYPTO_free(ptr noundef nonnull %2, ptr noundef nonnull @.str.13, i32 noundef 28) #8
  br label %22

22:                                               ; preds = %.sink.split, %0
  %.09 = phi i32 [ 0, %0 ], [ %.09.ph, %.sink.split ]
  call void @llvm.lifetime.end.p0(i64 15, ptr nonnull %1) #8
  ret i32 %.09
}